target datalayout = "e-m:e-p270:32:32-p271:32:32-p272:64:64-i64:64-i128:128-f80:128-n8:16:32:64-S128"
target triple = "x86_64-pc-linux-gnu"

; Function Attrs: mustprogress nounwind uwtable
define internal noundef i32 @_ZL31getNextComponentInDiscriminatorj(i32 noundef %0) #1 {
  %2 = alloca i32, align 4
  %3 = alloca i32, align 4
  store i32 %0, ptr %3, align 4
  %4 = load i32, ptr %3, align 4
  %5 = and i32 %4, 1
  %6 = icmp eq i32 %5, 0
  br i1 %6, label %7, label %14

7:                                                ; preds = %1
  %8 = load i32, ptr %3, align 4
  %9 = load i32, ptr %3, align 4
  %10 = and i32 %9, 64
  %11 = icmp ne i32 %10, 0
  %12 = select i1 %11, i32 14, i32 7
  %13 = lshr i32 %8, %12
  store i32 %13, ptr %2, align 4
  br label %17

14:                                               ; preds = %1
  %15 = load i32, ptr %3, align 4
  %16 = lshr i32 %15, 1
  store i32 %16, ptr %2, align 4
  br label %17

17:                                               ; preds = %14, %7
  %18 = load i32, ptr %2, align 4
  ret i32 %18
}

; Function Attrs: mustprogress nounwind uwtable
define internal noundef i32 @_ZL29getUnsignedFromPrefixEncodingj(i32 noundef %0) #1 {
  %2 = alloca i32, align 4
  %3 = alloca i32, align 4
  store i32 %0, ptr %3, align 4
  %4 = load i32, ptr %3, align 4
  %5 = and i32 %4, 1
  %6 = icmp ne i32 %5, 0
  br i1 %6, label %7, label %8

7:                                                ; preds = %1
  store i32 0, ptr %2, align 4
  br label %26

8:                                                ; preds = %1
  %9 = load i32, ptr %3, align 4
  %10 = lshr i32 %9, 1
  store i32 %10, ptr %3, align 4
  %11 = load i32, ptr %3, align 4
  %12 = and i32 %11, 32
  %13 = icmp ne i32 %12, 0
  br i1 %13, label %14, label %21

14:                                               ; preds = %8
  %15 = load i32, ptr %3, align 4
  %16 = lshr i32 %15, 1
  %17 = and i32 %16, 4064
  %18 = load i32, ptr %3, align 4
  %19 = and i32 %18, 31
  %20 = or i32 %17, %19
  br label %24

21:                                               ; preds = %8
  %22 = load i32, ptr %3, align 4
  %23 = and i32 %22, 31
  br label %24

24:                                               ; preds = %21, %14
  %25 = phi i32 [ %20, %14 ], [ %23, %21 ]
  store i32 %25, ptr %2, align 4
  br label %26

26:                                               ; preds = %24, %7
  %27 = load i32, ptr %2, align 4
  ret i32 %27
}

; Function Attrs: mustprogress nounwind uwtable
define dso_local void @_ZN4llvm10DILocation19decodeDiscriminatorEjRjS1_S1_(i32 noundef %0, ptr noundef nonnull align 4 dereferenceable(4) %1, ptr noundef nonnull align 4 dereferenceable(4) %2, ptr noundef nonnull align 4 dereferenceable(4) %3) #1 align 2 {
  %5 = alloca i32, align 4
  %6 = alloca ptr, align 8
  %7 = alloca ptr, align 8
  %8 = alloca ptr, align 8
  store i32 %0, ptr %5, align 4
  store ptr %1, ptr %6, align 8
  store ptr %2, ptr %7, align 8
  store ptr %3, ptr %8, align 8
  %9 = load i32, ptr %5, align 4
  %10 = call noundef i32 @_ZL29getUnsignedFromPrefixEncodingj(i32 noundef %9)
  %11 = load ptr, ptr %6, align 8
  store i32 %10, ptr %11, align 4
  %12 = load i32, ptr %5, align 4
  %13 = call noundef i32 @_ZL31getNextComponentInDiscriminatorj(i32 noundef %12)
  %14 = call noundef i32 @_ZL29getUnsignedFromPrefixEncodingj(i32 noundef %13)
  %15 = load ptr, ptr %7, align 8
  store i32 %14, ptr %15, align 4
  %16 = load i32, ptr %5, align 4
  %17 = call noundef i32 @_ZL31getNextComponentInDiscriminatorj(i32 noundef %16)
  %18 = call noundef i32 @_ZL31getNextComponentInDiscriminatorj(i32 noundef %17)
  %19 = call noundef i32 @_ZL29getUnsignedFromPrefixEncodingj(i32 noundef %18)
  %20 = load ptr, ptr %8, align 8
  store i32 %19, ptr %20, align 4
  ret void
}