; Function Attrs: mustprogress nofree norecurse nosync nounwind willreturn memory(argmem: write) uwtable
define dso_local void @_ZN4llvm10DILocation19decodeDiscriminatorEjRjS1_S1_(i32 noundef %0, ptr nocapture noundef nonnull writeonly align 4 dereferenceable(4) %1, ptr nocapture noundef nonnull writeonly align 4 dereferenceable(4) %2, ptr nocapture noundef nonnull writeonly align 4 dereferenceable(4) %3) local_unnamed_addr #6 align 2 {
  %5 = and i32 %0, 1
  %.not.i = icmp eq i32 %5, 0
  br i1 %.not.i, label %6, label %_ZL29getUnsignedFromPrefixEncodingj.exit

6:                                                ; preds = %4
  %7 = lshr exact i32 %0, 1
  %8 = and i32 %0, 64
  %.not7.i = icmp eq i32 %8, 0
  br i1 %.not7.i, label %14, label %9

9:                                                ; preds = %6
  %10 = lshr i32 %0, 2
  %11 = and i32 %10, 4064
  %12 = and i32 %7, 31
  %13 = or disjoint i32 %11, %12
  br label %_ZL29getUnsignedFromPrefixEncodingj.exit

14:                                               ; preds = %6
  %15 = and i32 %7, 31
  br label %_ZL29getUnsignedFromPrefixEncodingj.exit

_ZL29getUnsignedFromPrefixEncodingj.exit:         ; preds = %4, %9, %14
  %.pn.i = phi i32 [ 14, %9 ], [ 7, %14 ], [ 1, %4 ]
  %.0.i = phi i32 [ %13, %9 ], [ %15, %14 ], [ 0, %4 ]
  store i32 %.0.i, ptr %1, align 4
  %.0.i6 = lshr i32 %0, %.pn.i
  %16 = and i32 %.0.i6, 1
  %.not.i7 = icmp eq i32 %16, 0
  br i1 %.not.i7, label %17, label %_ZL29getUnsignedFromPrefixEncodingj.exit10

17:                                               ; preds = %_ZL29getUnsignedFromPrefixEncodingj.exit
  %18 = lshr exact i32 %.0.i6, 1
  %19 = and i32 %.0.i6, 64
  %.not7.i9 = icmp eq i32 %19, 0
  br i1 %.not7.i9, label %25, label %20

20:                                               ; preds = %17
  %21 = lshr i32 %.0.i6, 2
  %22 = and i32 %21, 4064
  %23 = and i32 %18, 31
  %24 = or disjoint i32 %22, %23
  br label %_ZL29getUnsignedFromPrefixEncodingj.exit10

25:                                               ; preds = %17
  %26 = and i32 %18, 31
  br label %_ZL29getUnsignedFromPrefixEncodingj.exit10

_ZL29getUnsignedFromPrefixEncodingj.exit10:       ; preds = %_ZL29getUnsignedFromPrefixEncodingj.exit, %20, %25
  %.pn.i15 = phi i32 [ 14, %20 ], [ 7, %25 ], [ 1, %_ZL29getUnsignedFromPrefixEncodingj.exit ]
  %.0.i8 = phi i32 [ %24, %20 ], [ %26, %25 ], [ 0, %_ZL29getUnsignedFromPrefixEncodingj.exit ]
  store i32 %.0.i8, ptr %2, align 4
  %.0.i16 = lshr i32 %.0.i6, %.pn.i15
  %27 = and i32 %.0.i16, 1
  %.not.i17 = icmp eq i32 %27, 0
  br i1 %.not.i17, label %28, label %_ZL29getUnsignedFromPrefixEncodingj.exit20

28:                                               ; preds = %_ZL29getUnsignedFromPrefixEncodingj.exit10
  %29 = lshr exact i32 %.0.i16, 1
  %30 = and i32 %.0.i16, 64
  %.not7.i19 = icmp eq i32 %30, 0
  br i1 %.not7.i19, label %36, label %31

31:                                               ; preds = %28
  %32 = lshr i32 %.0.i16, 2
  %33 = and i32 %32, 4064
  %34 = and i32 %29, 31
  %35 = or disjoint i32 %33, %34
  br label %_ZL29getUnsignedFromPrefixEncodingj.exit20

36:                                               ; preds = %28
  %37 = and i32 %29, 31
  br label %_ZL29getUnsignedFromPrefixEncodingj.exit20

_ZL29getUnsignedFromPrefixEncodingj.exit20:       ; preds = %_ZL29getUnsignedFromPrefixEncodingj.exit10, %31, %36
  %.0.i18 = phi i32 [ 0, %_ZL29getUnsignedFromPrefixEncodingj.exit10 ], [ %35, %31 ], [ %37, %36 ]
  store i32 %.0.i18, ptr %3, align 4
  ret void
}